; Function Attrs: mustprogress nofree norecurse nosync nounwind willreturn memory(read, inaccessiblemem: none) uwtable
define hidden noundef zeroext i1 @_ZNK5nlsat6solver14is_interpretedEj(ptr nocapture noundef nonnull readonly align 8 dereferenceable(16) %this, i32 noundef %b) local_unnamed_addr #7 align 2 {
entry:
  %0 = load ptr, ptr %this, align 8
  %m_atoms = getelementptr inbounds i8, ptr %0, i64 360
  %1 = load ptr, ptr %m_atoms, align 8
  %idxprom.i = zext i32 %b to i64
  %arrayidx.i = getelementptr inbounds ptr, ptr %1, i64 %idxprom.i
  %2 = load ptr, ptr %arrayidx.i, align 8
  %cmp = icmp ne ptr %2, null
  ret i1 %cmp
}